target datalayout = "e-m:e-p270:32:32-p271:32:32-p272:64:64-i64:64-i128:128-f80:128-n8:16:32:64-S128"
target triple = "x86_64-pc-linux-gnu"

%"struct.Luau::FValue" = type { i8, i8, ptr, ptr }
%"struct.Luau::CodeGen::A64::RegisterA64" = type { i8 }
%"struct.Luau::CodeGen::A64::IrRegAllocA64" = type <{ ptr, ptr, %"struct.Luau::CodeGen::A64::IrRegAllocA64::Set", %"struct.Luau::CodeGen::A64::IrRegAllocA64::Set", %"class.std::vector", i32, i8, [3 x i8] }>
%"struct.Luau::CodeGen::A64::IrRegAllocA64::Set" = type { i32, i32, i32, [32 x i32] }
%"class.std::vector" = type { %"struct.std::_Vector_base" }
%"struct.std::_Vector_base" = type { %"struct.std::_Vector_base<Luau::CodeGen::A64::IrRegAllocA64::Spill, std::allocator<Luau::CodeGen::A64::IrRegAllocA64::Spill>>::_Vector_impl" }
%"struct.std::_Vector_base<Luau::CodeGen::A64::IrRegAllocA64::Spill, std::allocator<Luau::CodeGen::A64::IrRegAllocA64::Spill>>::_Vector_impl" = type { %"struct.std::_Vector_base<Luau::CodeGen::A64::IrRegAllocA64::Spill, std::allocator<Luau::CodeGen::A64::IrRegAllocA64::Spill>>::_Vector_impl_data" }
%"struct.std::_Vector_base<Luau::CodeGen::A64::IrRegAllocA64::Spill, std::allocator<Luau::CodeGen::A64::IrRegAllocA64::Spill>>::_Vector_impl_data" = type { ptr, ptr, ptr }

@_ZN5FFlag20DebugCodegenChaosA64E = dso_local global %"struct.Luau::FValue" zeroinitializer, align 8

; Function Attrs: inlinehint mustprogress nounwind uwtable
define linkonce_odr dso_local noundef i32 @_ZN4Luau7CodeGen7countrzEj(i32 noundef %0) #3 comdat {
  %2 = alloca i32, align 4
  store i32 %0, ptr %2, align 4, !tbaa !43
  %3 = load i32, ptr %2, align 4, !tbaa !43
  %4 = icmp eq i32 %3, 0
  br i1 %4, label %5, label %6

5:                                                ; preds = %1
  br label %9

6:                                                ; preds = %1
  %7 = load i32, ptr %2, align 4, !tbaa !43
  %8 = call i32 @llvm.cttz.i32(i32 %7, i1 true)
  br label %9

9:                                                ; preds = %6, %5
  %10 = phi i32 [ 32, %5 ], [ %8, %6 ]
  ret i32 %10
}

; Function Attrs: alwaysinline mustprogress nounwind uwtable
define linkonce_odr dso_local noundef zeroext i1 @_ZNK4Luau6FValueIbEcvbEv(ptr noundef nonnull align 8 dereferenceable(24) %0) #6 comdat align 2 {
  %2 = alloca ptr, align 8
  store ptr %0, ptr %2, align 8, !tbaa !4
  %3 = load ptr, ptr %2, align 8
  %4 = getelementptr inbounds nuw %"struct.Luau::FValue", ptr %3, i32 0, i32 0
  %5 = load i8, ptr %4, align 8, !tbaa !15, !range !13, !noundef !14
  %6 = trunc i8 %5 to i1
  ret i1 %6
}

; Function Attrs: inlinehint mustprogress nounwind uwtable
define linkonce_odr dso_local noundef i32 @_ZN4Luau7CodeGen7countlzEj(i32 noundef %0) #3 comdat {
  %2 = alloca i32, align 4
  store i32 %0, ptr %2, align 4, !tbaa !43
  %3 = load i32, ptr %2, align 4, !tbaa !43
  %4 = icmp eq i32 %3, 0
  br i1 %4, label %5, label %6

5:                                                ; preds = %1
  br label %9

6:                                                ; preds = %1
  %7 = load i32, ptr %2, align 4, !tbaa !43
  %8 = call i32 @llvm.ctlz.i32(i32 %7, i1 true)
  br label %9

9:                                                ; preds = %6, %5
  %10 = phi i32 [ 32, %5 ], [ %8, %6 ]
  ret i32 %10
}

; Function Attrs: mustprogress nounwind uwtable
define dso_local noundef nonnull align 4 dereferenceable(140) ptr @_ZN4Luau7CodeGen3A6413IrRegAllocA646getSetENS1_7KindA64E(ptr noundef nonnull align 8 dereferenceable(325) %0, i8 noundef zeroext %1) #1 align 2 {
  %3 = alloca ptr, align 8
  %4 = alloca ptr, align 8
  %5 = alloca i8, align 1
  store ptr %0, ptr %4, align 8, !tbaa !20
  store i8 %1, ptr %5, align 1, !tbaa !58
  %6 = load ptr, ptr %4, align 8
  %7 = load i8, ptr %5, align 1, !tbaa !58
  switch i8 %7, label %12 [
    i8 2, label %8
    i8 1, label %8
    i8 3, label %10
    i8 4, label %10
    i8 5, label %10
  ]

8:                                                ; preds = %2, %2
  %9 = getelementptr inbounds nuw %"struct.Luau::CodeGen::A64::IrRegAllocA64", ptr %6, i32 0, i32 2
  store ptr %9, ptr %3, align 8
  br label %13

10:                                               ; preds = %2, %2, %2
  %11 = getelementptr inbounds nuw %"struct.Luau::CodeGen::A64::IrRegAllocA64", ptr %6, i32 0, i32 3
  store ptr %11, ptr %3, align 8
  br label %13

12:                                               ; preds = %2
  unreachable

13:                                               ; preds = %10, %8
  %14 = load ptr, ptr %3, align 8
  ret ptr %14
}

; Function Attrs: mustprogress uwtable
define dso_local i8 @_ZN4Luau7CodeGen3A6413IrRegAllocA648allocRegENS1_7KindA64Ej(ptr noundef nonnull align 8 dereferenceable(325) %0, i8 noundef zeroext %1, i32 noundef %2) #2 align 2 {
  %4 = alloca %"struct.Luau::CodeGen::A64::RegisterA64", align 1
  %5 = alloca ptr, align 8
  %6 = alloca i8, align 1
  %7 = alloca i32, align 4
  %8 = alloca ptr, align 8
  %9 = alloca i32, align 4
  %10 = alloca i32, align 4
  store ptr %0, ptr %5, align 8, !tbaa !20
  store i8 %1, ptr %6, align 1, !tbaa !58
  store i32 %2, ptr %7, align 4, !tbaa !43
  %11 = load ptr, ptr %5, align 8
  call void @llvm.lifetime.start.p0(i64 8, ptr %8) #16
  %12 = load i8, ptr %6, align 1, !tbaa !58
  %13 = call noundef nonnull align 4 dereferenceable(140) ptr @_ZN4Luau7CodeGen3A6413IrRegAllocA646getSetENS1_7KindA64E(ptr noundef nonnull align 8 dereferenceable(325) %11, i8 noundef zeroext %12)
  store ptr %13, ptr %8, align 8, !tbaa !41
  %14 = load ptr, ptr %8, align 8, !tbaa !41
  %15 = getelementptr inbounds nuw %"struct.Luau::CodeGen::A64::IrRegAllocA64::Set", ptr %14, i32 0, i32 1
  %16 = load i32, ptr %15, align 4, !tbaa !51
  %17 = icmp eq i32 %16, 0
  br i1 %17, label %18, label %28

18:                                               ; preds = %3
  %19 = getelementptr inbounds nuw %"struct.Luau::CodeGen::A64::IrRegAllocA64", ptr %11, i32 0, i32 6
  store i8 1, ptr %19, align 4, !tbaa !36
  %20 = load i8, ptr %6, align 1, !tbaa !58
  %21 = load i8, ptr %4, align 1
  %22 = and i8 %20, 7
  %23 = and i8 %21, -8
  %24 = or i8 %23, %22
  store i8 %24, ptr %4, align 1
  %25 = load i8, ptr %4, align 1
  %26 = and i8 %25, 7
  %27 = or i8 %26, 0
  store i8 %27, ptr %4, align 1
  store i32 1, ptr %9, align 4
  br label %66

28:                                               ; preds = %3
  call void @llvm.lifetime.start.p0(i64 4, ptr %10) #16
  %29 = load ptr, ptr %8, align 8, !tbaa !41
  %30 = getelementptr inbounds nuw %"struct.Luau::CodeGen::A64::IrRegAllocA64::Set", ptr %29, i32 0, i32 1
  %31 = load i32, ptr %30, align 4, !tbaa !51
  %32 = call noundef i32 @_ZN4Luau7CodeGen7countlzEj(i32 noundef %31)
  %33 = sub nsw i32 31, %32
  store i32 %33, ptr %10, align 4, !tbaa !43
  %34 = call noundef zeroext i1 @_ZNK4Luau6FValueIbEcvbEv(ptr noundef nonnull align 8 dereferenceable(24) @_ZN5FFlag20DebugCodegenChaosA64E)
  br i1 %34, label %35, label %40

35:                                               ; preds = %28
  %36 = load ptr, ptr %8, align 8, !tbaa !41
  %37 = getelementptr inbounds nuw %"struct.Luau::CodeGen::A64::IrRegAllocA64::Set", ptr %36, i32 0, i32 1
  %38 = load i32, ptr %37, align 4, !tbaa !51
  %39 = call noundef i32 @_ZN4Luau7CodeGen7countrzEj(i32 noundef %38)
  store i32 %39, ptr %10, align 4, !tbaa !43
  br label %40

40:                                               ; preds = %35, %28
  %41 = load i32, ptr %10, align 4, !tbaa !43
  %42 = shl i32 1, %41
  %43 = xor i32 %42, -1
  %44 = load ptr, ptr %8, align 8, !tbaa !41
  %45 = getelementptr inbounds nuw %"struct.Luau::CodeGen::A64::IrRegAllocA64::Set", ptr %44, i32 0, i32 1
  %46 = load i32, ptr %45, align 4, !tbaa !51
  %47 = and i32 %46, %43
  store i32 %47, ptr %45, align 4, !tbaa !51
  %48 = load i32, ptr %7, align 4, !tbaa !43
  %49 = load ptr, ptr %8, align 8, !tbaa !41
  %50 = getelementptr inbounds nuw %"struct.Luau::CodeGen::A64::IrRegAllocA64::Set", ptr %49, i32 0, i32 3
  %51 = load i32, ptr %10, align 4, !tbaa !43
  %52 = sext i32 %51 to i64
  %53 = getelementptr inbounds [32 x i32], ptr %50, i64 0, i64 %52
  store i32 %48, ptr %53, align 4, !tbaa !43
  %54 = load i8, ptr %6, align 1, !tbaa !58
  %55 = load i8, ptr %4, align 1
  %56 = and i8 %54, 7
  %57 = and i8 %55, -8
  %58 = or i8 %57, %56
  store i8 %58, ptr %4, align 1
  %59 = load i32, ptr %10, align 4, !tbaa !43
  %60 = trunc i32 %59 to i8
  %61 = load i8, ptr %4, align 1
  %62 = and i8 %60, 31
  %63 = shl i8 %62, 3
  %64 = and i8 %61, 7
  %65 = or i8 %64, %63
  store i8 %65, ptr %4, align 1
  store i32 1, ptr %9, align 4
  call void @llvm.lifetime.end.p0(i64 4, ptr %10) #16
  br label %66

66:                                               ; preds = %40, %18
  call void @llvm.lifetime.end.p0(i64 8, ptr %8) #16
  %67 = getelementptr inbounds nuw %"struct.Luau::CodeGen::A64::RegisterA64", ptr %4, i32 0, i32 0
  %68 = load i8, ptr %67, align 1
  ret i8 %68
}