; Function Attrs: mustprogress nofree norecurse nosync nounwind willreturn memory(read, argmem: readwrite, inaccessiblemem: none) uwtable
define dso_local i8 @_ZN4Luau7CodeGen3A6413IrRegAllocA648allocRegENS1_7KindA64Ej(ptr noundef nonnull align 8 captures(none) dereferenceable(325) %0, i8 noundef zeroext %1, i32 noundef %2) local_unnamed_addr #3 align 2 {
  %.off.i = add i8 %1, -1
  %switch.i = icmp ult i8 %.off.i, 2
  %.0.v.i = select i1 %switch.i, i64 16, i64 156
  %.0.i = getelementptr inbounds nuw i8, ptr %0, i64 %.0.v.i
  %4 = getelementptr inbounds nuw i8, ptr %.0.i, i64 4
  %5 = load i32, ptr %4, align 4, !tbaa !21
  %6 = icmp eq i32 %5, 0
  br i1 %6, label %7, label %10

7:                                                ; preds = %3
  %8 = getelementptr inbounds nuw i8, ptr %0, i64 324
  store i8 1, ptr %8, align 4, !tbaa !30
  %9 = and i8 %1, 7
  br label %26

10:                                               ; preds = %3
  %11 = tail call noundef range(i32 0, 33) i32 @llvm.ctlz.i32(i32 %5, i1 true)
  %12 = xor i32 %11, 31
  %13 = load i8, ptr @_ZN5FFlag20DebugCodegenChaosA64E, align 8, !tbaa !31, !range !35, !noundef !36
  %14 = trunc nuw i8 %13 to i1
  %15 = tail call range(i32 0, 33) i32 @llvm.cttz.i32(i32 %5, i1 true)
  %spec.select = select i1 %14, i32 %15, i32 %12
  %16 = shl nuw i32 1, %spec.select
  %17 = xor i32 %16, -1
  %18 = and i32 %5, %17
  store i32 %18, ptr %4, align 4, !tbaa !21
  %19 = getelementptr inbounds nuw i8, ptr %.0.i, i64 12
  %20 = zext nneg i32 %spec.select to i64
  %21 = getelementptr inbounds nuw [32 x i32], ptr %19, i64 0, i64 %20
  store i32 %2, ptr %21, align 4, !tbaa !37
  %22 = and i8 %1, 7
  %23 = trunc nuw nsw i32 %spec.select to i8
  %24 = shl nuw i8 %23, 3
  %25 = or disjoint i8 %24, %22
  br label %26

26:                                               ; preds = %10, %7
  %.sroa.0.0 = phi i8 [ %9, %7 ], [ %25, %10 ]
  ret i8 %.sroa.0.0
}